; Function Attrs: null_pointer_is_valid sspstrong uwtable
define internal fastcc noundef i32 @decode_pfcp_destination_interface(ptr noundef %0, ptr noundef %1, ptr noundef %2, ptr noundef %3, i32 noundef range(i32 0, 24) %4, i32 noundef returned %5) unnamed_addr #0 {
  %7 = alloca i32, align 4
  call void @llvm.lifetime.start.p0(i64 4, ptr nonnull %7) #15
  %8 = load i32, ptr @hf_pfcp_spare_h1, align 4
  %9 = tail call ptr @proto_tree_add_item(ptr noundef %2, i32 noundef %8, ptr noundef %0, i32 noundef %4, i32 noundef 1, i32 noundef 0)
  %10 = load i32, ptr @hf_pfcp_dst_interface, align 4
  %11 = call ptr @proto_tree_add_item_ret_uint(ptr noundef %2, i32 noundef %10, ptr noundef %0, i32 noundef %4, i32 noundef 1, i32 noundef 0, ptr noundef nonnull %7)
  %12 = add nuw nsw i32 %4, 1
  %13 = load i32, ptr %7, align 4
  %14 = call ptr @val_to_str_const(i32 noundef %13, ptr noundef nonnull @pfcp_dst_interface_vals, ptr noundef nonnull @.str.2639)
  call void (ptr, ptr, ...) @proto_item_append_text(ptr noundef %3, ptr noundef nonnull @.str.2654, ptr noundef %14)
  %15 = icmp slt i32 %12, %5
  br i1 %15, label %16, label %18

16:                                               ; preds = %6
  %17 = call ptr @proto_tree_add_expert(ptr noundef %2, ptr noundef %1, ptr noundef nonnull @ei_pfcp_ie_data_not_decoded, ptr noundef %0, i32 noundef %12, i32 noundef -1)
  br label %18

18:                                               ; preds = %16, %6
  call void @llvm.lifetime.end.p0(i64 4, ptr nonnull %7) #15
  ret i32 %5
}